Certificate:
    Data:
        Version: 3 (0x2)
        Serial Number:
            d6:a2:25:46:8e:5d:0d:06:55:cf:8f:7a:8a:97:f4:be
    Signature Algorithm: sha256WithRSAEncryption
        Issuer: CN=Test Root CA
        Validity
            Not Before: Dec 14 01:40:26 2022 GMT
            Not After : Dec 11 01:40:26 2032 GMT
        Subject: C=TW, ST=TP, O=HIMS, OU=IT, CN=iotdemodevice1/emailAddress=howwoh1996@gmail.com
        Subject Public Key Info:
            Public Key Algorithm: rsaEncryption
                Public-Key: (2048 bit)
                Modulus:
                    00:c7:fc:82:96:bc:79:7a:7e:07:71:b7:ad:c5:a3:
                    e8:0b:a2:18:2a:32:62:b9:20:ac:15:6c:5f:37:b4:
                    d2:cb:f4:1c:da:04:66:e4:b4:db:19:c2:22:6c:fd:
                    c4:17:b9:e6:9f:e8:ae:cb:7c:15:c1:ef:29:e0:2c:
                    71:81:2a:fc:28:f8:19:95:06:b5:cd:0d:f2:10:a7:
                    3d:e5:89:f2:79:3e:b1:80:44:66:56:b8:0b:03:b9:
                    4e:0e:2e:cd:d3:95:d5:ad:c5:f8:ba:63:29:b4:a0:
                    ba:7e:82:f3:84:f6:60:0e:36:e9:df:78:35:e8:55:
                    e8:a7:24:3c:d2:d9:2e:54:01:a8:57:f0:33:6f:7e:
                    ff:7a:9b:df:b1:03:38:d2:d6:14:fe:e1:17:5c:ad:
                    d3:15:08:d1:0f:65:e1:fb:2d:07:ad:27:ff:12:51:
                    95:65:db:fe:34:ae:e4:c3:8d:8b:f4:83:b0:42:d7:
                    71:95:ee:29:eb:63:d4:fa:ae:aa:dc:84:60:d2:fc:
                    34:62:53:e2:e1:02:be:c2:d4:3c:19:9c:ea:01:ac:
                    44:c9:9e:c9:0c:7d:76:43:fa:f7:4e:6f:54:46:20:
                    8c:a9:3e:62:95:55:8a:63:41:84:45:a1:40:e4:d0:
                    6d:72:a9:1e:a3:d1:1b:52:cd:4d:fd:6c:bf:d6:4f:
                    17:45
                Exponent: 65537 (0x10001)
        X509v3 extensions:
            X509v3 Authority Key Identifier: 
                keyid:1F:DB:32:CF:FE:0F:C1:C9:F3:2F:13:89:FA:CF:F0:2F:29:38:2F:6F

            X509v3 Basic Constraints: critical
                CA:FALSE
            X509v3 Extended Key Usage: 
                TLS Web Client Authentication
            X509v3 Key Usage: critical
                Digital Signature
            X509v3 Subject Key Identifier: 
                78:98:AF:83:5A:F9:9B:18:0C:65:A4:10:62:39:88:FF:BF:62:77:72
    Signature Algorithm: sha256WithRSAEncryption
         58:72:f3:4e:6d:31:08:9b:8a:bb:0c:86:39:27:58:63:ce:2e:
         85:f1:55:d2:94:c3:b3:3b:da:f4:92:78:bb:00:9c:00:ae:64:
         0b:5e:8a:fa:ab:9e:bc:c1:20:41:96:35:00:5f:0a:39:bb:62:
         d3:e8:66:74:9f:d1:95:d7:29:26:af:24:49:29:9c:44:87:0f:
         76:75:61:29:8e:bc:f2:03:89:15:a7:b8:bf:7b:2a:8e:68:49:
         19:01:84:6e:f6:5d:db:3e:f4:83:fc:82:ae:b1:3c:25:bb:cd:
         15:b2:3d:50:ce:99:a9:6d:9d:85:ad:fb:69:39:15:4d:7b:95:
         57:6b:a5:99:93:57:99:15:b3:81:eb:55:ef:e3:c4:16:4b:5e:
         44:df:7c:a8:97:68:50:5b:7d:49:9d:dc:5d:6d:50:ea:03:b3:
         0d:f9:78:d9:e5:17:a5:e0:a7:4f:d3:1f:18:b8:38:48:c3:d2:
         3e:19:17:88:e0:53:4a:2d:a4:67:8a:03:7d:41:aa:88:7a:81:
         2b:4c:fc:e6:34:95:5e:a4:7b:df:aa:b5:e8:60:15:57:79:a9:
         5e:de:c0:ed:24:58:a0:e4:ce:ab:ba:96:30:fd:e4:fb:8e:cd:
         4a:28:37:63:46:74:3b:7b:5f:22:26:a6:c9:e8:ee:b1:1e:96:
         2c:33:de:47
-----BEGIN CERTIFICATE-----
MIIDizCCAnOgAwIBAgIRANaiJUaOXQ0GVc+PeoqX9L4wDQYJKoZIhvcNAQELBQAw
FzEVMBMGA1UEAwwMVGVzdCBSb290IENBMB4XDTIyMTIxNDAxNDAyNloXDTMyMTIx
MTAxNDAyNlowdDELMAkGA1UEBhMCVFcxCzAJBgNVBAgMAlRQMQ0wCwYDVQQKDARI
SU1TMQswCQYDVQQLDAJJVDEXMBUGA1UEAwwOaW90ZGVtb2RldmljZTExIzAhBgkq
hkiG9w0BCQEWFGhvd3dvaDE5OTZAZ21haWwuY29tMIIBIjANBgkqhkiG9w0BAQEF
AAOCAQ8AMIIBCgKCAQEAx/yClrx5en4HcbetxaPoC6IYKjJiuSCsFWxfN7TSy/Qc
2gRm5LTbGcIibP3EF7nmn+iuy3wVwe8p4CxxgSr8KPgZlQa1zQ3yEKc95YnyeT6x
gERmVrgLA7lODi7N05XVrcX4umMptKC6foLzhPZgDjbp33g16FXopyQ80tkuVAGo
V/Azb37/epvfsQM40tYU/uEXXK3TFQjRD2Xh+y0HrSf/ElGVZdv+NK7kw42L9IOw
Qtdxle4p62PU+q6q3IRg0vw0YlPi4QK+wtQ8GZzqAaxEyZ7JDH12Q/r3Tm9URiCM
qT5ilVWKY0GERaFA5NBtcqkeo9EbUs1N/Wy/1k8XRQIDAQABo3UwczAfBgNVHSME
GDAWgBQf2zLP/g/ByfMvE4n6z/AvKTgvbzAMBgNVHRMBAf8EAjAAMBMGA1UdJQQM
MAoGCCsGAQUFBwMCMA4GA1UdDwEB/wQEAwIHgDAdBgNVHQ4EFgQUeJivg1r5mxgM
ZaQQYjmI/79id3IwDQYJKoZIhvcNAQELBQADggEBAFhy805tMQibirsMhjknWGPO
LoXxVdKUw7M72vSSeLsAnACuZAteivqrnrzBIEGWNQBfCjm7YtPoZnSf0ZXXKSav
JEkpnESHD3Z1YSmOvPIDiRWnuL97Ko5oSRkBhG72Xds+9IP8gq6xPCW7zRWyPVDO
maltnYWt+2k5FU17lVdrpZmTV5kVs4HrVe/jxBZLXkTffKiXaFBbfUmd3F1tUOoD
sw35eNnlF6Xgp0/THxi4OEjD0j4ZF4jgU0otpGeKA31Bqoh6gStM/OY0lV6ke9+q
tehgFVd5qV7ewO0kWKDkzqu6ljD95PuOzUooN2NGdDt7XyImpsno7rEeliwz3kc=
-----END CERTIFICATE-----
