Certificate:
    Data:
        Version: 3 (0x2)
        Serial Number:
            d6:a2:25:46:8e:5d:0d:06:55:cf:8f:7a:8a:97:f4:bc
    Signature Algorithm: sha256WithRSAEncryption
        Issuer: CN=Test Root CA
        Validity
            Not Before: Dec 14 01:30:09 2022 GMT
            Not After : Dec 11 01:30:09 2032 GMT
        Subject: CN=Test Root CA
        Subject Public Key Info:
            Public Key Algorithm: rsaEncryption
                Public-Key: (2048 bit)
                Modulus:
                    00:c5:de:7b:90:25:7c:08:b2:63:e8:a0:ad:54:ba:
                    24:a0:50:c6:87:60:dc:cc:b5:de:2c:c4:1b:b8:bf:
                    f6:5b:3b:96:9c:93:78:66:5e:ee:d2:10:2a:16:99:
                    46:d6:bd:ce:87:35:96:a2:6a:1f:29:6c:4f:30:73:
                    4b:0b:5c:27:59:99:8e:35:32:64:56:7e:f6:8b:93:
                    a4:20:99:94:da:73:0c:11:66:19:48:1b:2e:76:02:
                    01:31:26:68:a8:4a:93:36:ad:6a:e8:79:4d:b7:42:
                    89:00:b9:c0:3c:36:d3:8f:3c:db:c7:00:f0:9d:c8:
                    a0:df:64:36:9e:eb:54:48:9c:93:13:b9:7e:4f:13:
                    29:f5:d8:10:c1:ce:b3:1a:a0:41:cc:bb:4c:ec:5e:
                    82:87:80:8b:00:04:10:1c:c3:c9:be:4e:fc:f9:61:
                    13:ed:46:91:f6:51:89:57:f5:08:a6:a0:8e:80:dc:
                    86:f6:4d:03:57:67:7a:11:81:d9:08:94:58:32:3f:
                    50:1a:a0:1c:e3:59:af:69:40:a1:a1:a7:f0:cf:a2:
                    46:34:06:12:a6:06:1e:12:4d:b6:08:9c:e7:dd:d4:
                    3b:61:8f:4a:23:3e:f5:fc:8c:94:79:2c:1e:f2:38:
                    73:4e:80:e8:1f:9b:a1:82:57:c9:6d:e8:3b:1d:ec:
                    04:03
                Exponent: 65537 (0x10001)
        X509v3 extensions:
            X509v3 Basic Constraints: critical
                CA:TRUE
            X509v3 Key Usage: critical
                Certificate Sign, CRL Sign
            X509v3 Subject Key Identifier: 
                1F:DB:32:CF:FE:0F:C1:C9:F3:2F:13:89:FA:CF:F0:2F:29:38:2F:6F
    Signature Algorithm: sha256WithRSAEncryption
         37:18:4b:ac:93:20:a5:f0:32:26:04:3c:a9:d6:23:3b:d3:c2:
         bf:41:79:37:ac:a3:52:58:20:b4:be:8b:2a:94:83:1c:ae:fb:
         61:9d:c9:eb:b0:3d:3a:88:89:be:ad:6c:d4:be:ab:30:ce:81:
         7f:05:ea:99:30:40:87:59:21:b4:e5:51:7c:96:93:6c:f2:1b:
         12:27:a6:26:1d:e6:6d:28:61:9d:5b:65:a8:f5:bb:c7:b3:cf:
         1b:f6:4d:7d:68:fb:f4:43:4e:e3:35:08:e6:b0:03:0f:dd:b6:
         03:32:2a:a7:1b:3e:61:b9:ab:a8:dd:50:60:0e:82:b7:5d:8d:
         24:56:22:bd:83:83:8f:fc:af:17:7f:fc:ce:e3:90:7c:db:71:
         bd:e9:6f:80:b2:3c:94:18:66:9f:5b:c0:75:17:1a:64:45:3d:
         f0:d5:f8:7b:ad:63:c5:d0:4f:38:75:8e:ff:4e:0b:03:5d:73:
         93:16:4e:c2:44:29:2e:76:da:a4:53:fc:ad:8f:21:99:d6:95:
         7e:77:78:54:60:de:b9:e8:ce:0e:6c:04:24:26:43:7b:3a:de:
         5c:88:32:f3:61:67:b0:73:84:4f:f8:9a:b0:bd:7b:b4:20:4a:
         6a:fb:d8:94:6c:5f:1a:01:cc:5b:83:fa:90:2a:f1:32:fb:5e:
         79:3a:a7:40
-----BEGIN CERTIFICATE-----
MIIC+zCCAeOgAwIBAgIRANaiJUaOXQ0GVc+PeoqX9LwwDQYJKoZIhvcNAQELBQAw
FzEVMBMGA1UEAwwMVGVzdCBSb290IENBMB4XDTIyMTIxNDAxMzAwOVoXDTMyMTIx
MTAxMzAwOVowFzEVMBMGA1UEAwwMVGVzdCBSb290IENBMIIBIjANBgkqhkiG9w0B
AQEFAAOCAQ8AMIIBCgKCAQEAxd57kCV8CLJj6KCtVLokoFDGh2DczLXeLMQbuL/2
WzuWnJN4Zl7u0hAqFplG1r3OhzWWomofKWxPMHNLC1wnWZmONTJkVn72i5OkIJmU
2nMMEWYZSBsudgIBMSZoqEqTNq1q6HlNt0KJALnAPDbTjzzbxwDwncig32Q2nutU
SJyTE7l+TxMp9dgQwc6zGqBBzLtM7F6Ch4CLAAQQHMPJvk78+WET7UaR9lGJV/UI
pqCOgNyG9k0DV2d6EYHZCJRYMj9QGqAc41mvaUChoafwz6JGNAYSpgYeEk22CJzn
3dQ7YY9KIz71/IyUeSwe8jhzToDoH5uhglfJbeg7HewEAwIDAQABo0IwQDAPBgNV
HRMBAf8EBTADAQH/MA4GA1UdDwEB/wQEAwIBBjAdBgNVHQ4EFgQUH9syz/4Pwcnz
LxOJ+s/wLyk4L28wDQYJKoZIhvcNAQELBQADggEBADcYS6yTIKXwMiYEPKnWIzvT
wr9BeTeso1JYILS+iyqUgxyu+2GdyeuwPTqIib6tbNS+qzDOgX8F6pkwQIdZIbTl
UXyWk2zyGxInpiYd5m0oYZ1bZaj1u8ezzxv2TX1o+/RDTuM1COawAw/dtgMyKqcb
PmG5q6jdUGAOgrddjSRWIr2Dg4/8rxd//M7jkHzbcb3pb4CyPJQYZp9bwHUXGmRF
PfDV+HutY8XQTzh1jv9OCwNdc5MWTsJEKS522qRT/K2PIZnWlX53eFRg3rnozg5s
BCQmQ3s63lyIMvNhZ7BzhE/4mrC9e7QgSmr72JRsXxoBzFuD+pAq8TL7Xnk6p0A=
-----END CERTIFICATE-----
